target datalayout = "e-m:e-p270:32:32-p271:32:32-p272:64:64-i64:64-i128:128-f80:128-n8:16:32:64-S128"
target triple = "x86_64-pc-linux-gnu"

%struct.mbedtls_aes_context = type { i32, i64, [68 x i32] }

@FSb = internal global [256 x i8] zeroinitializer, align 16
@RT0 = internal global [256 x i32] zeroinitializer, align 16
@RT1 = internal global [256 x i32] zeroinitializer, align 16
@RT2 = internal global [256 x i32] zeroinitializer, align 16
@RT3 = internal global [256 x i32] zeroinitializer, align 16

; Function Attrs: nounwind uwtable
define hidden void @mbedtls_aes_free(ptr noundef %0) #0 {
  %2 = alloca ptr, align 8
  store ptr %0, ptr %2, align 8, !tbaa !3
  %3 = load ptr, ptr %2, align 8, !tbaa !3
  %4 = icmp eq ptr %3, null
  br i1 %4, label %5, label %6

5:                                                ; preds = %1
  br label %8

6:                                                ; preds = %1
  %7 = load ptr, ptr %2, align 8, !tbaa !3
  call void @mbedtls_platform_zeroize(ptr noundef %7, i64 noundef 288)
  br label %8

8:                                                ; preds = %6, %5
  ret void
}

; Function Attrs: nounwind uwtable
define internal i32 @mbedtls_aes_rk_offset(ptr noundef %0) #0 {
  %2 = alloca ptr, align 8
  store ptr %0, ptr %2, align 8, !tbaa !18
  ret i32 0
}

; Function Attrs: nounwind uwtable
define hidden void @mbedtls_aes_init(ptr noundef %0) #0 {
  %2 = alloca ptr, align 8
  store ptr %0, ptr %2, align 8, !tbaa !3
  %3 = load ptr, ptr %2, align 8, !tbaa !3
  call void @llvm.memset.p0.i64(ptr align 8 %3, i8 0, i64 288, i1 false)
  ret void
}

; Function Attrs: nounwind uwtable
define hidden i32 @mbedtls_aes_setkey_dec(ptr noundef %0, ptr noundef %1, i32 noundef %2) #0 {
  %4 = alloca ptr, align 8
  %5 = alloca ptr, align 8
  %6 = alloca i32, align 4
  %7 = alloca ptr, align 8
  %8 = alloca i32, align 4
  %9 = alloca %struct.mbedtls_aes_context, align 8
  %10 = alloca ptr, align 8
  %11 = alloca i32, align 4
  %12 = alloca i32, align 4
  %13 = alloca i32, align 4
  store ptr %0, ptr %4, align 8, !tbaa !3
  store ptr %1, ptr %5, align 8, !tbaa !10
  store i32 %2, ptr %6, align 4, !tbaa !12
  call void @llvm.lifetime.start.p0(i64 8, ptr %7) #10
  call void @llvm.lifetime.start.p0(i64 4, ptr %8) #10
  call void @llvm.lifetime.start.p0(i64 288, ptr %9) #10
  call void @llvm.lifetime.start.p0(i64 8, ptr %10) #10
  call void @mbedtls_aes_init(ptr noundef %9)
  %14 = load ptr, ptr %4, align 8, !tbaa !3
  %15 = getelementptr inbounds nuw %struct.mbedtls_aes_context, ptr %14, i32 0, i32 2
  %16 = getelementptr inbounds [68 x i32], ptr %15, i64 0, i64 0
  %17 = call i32 @mbedtls_aes_rk_offset(ptr noundef %16)
  %18 = zext i32 %17 to i64
  %19 = load ptr, ptr %4, align 8, !tbaa !3
  %20 = getelementptr inbounds nuw %struct.mbedtls_aes_context, ptr %19, i32 0, i32 1
  store i64 %18, ptr %20, align 8, !tbaa !17
  %21 = load ptr, ptr %4, align 8, !tbaa !3
  %22 = getelementptr inbounds nuw %struct.mbedtls_aes_context, ptr %21, i32 0, i32 2
  %23 = getelementptr inbounds [68 x i32], ptr %22, i64 0, i64 0
  %24 = load ptr, ptr %4, align 8, !tbaa !3
  %25 = getelementptr inbounds nuw %struct.mbedtls_aes_context, ptr %24, i32 0, i32 1
  %26 = load i64, ptr %25, align 8, !tbaa !17
  %27 = getelementptr inbounds nuw i32, ptr %23, i64 %26
  store ptr %27, ptr %10, align 8, !tbaa !18
  %28 = load ptr, ptr %5, align 8, !tbaa !10
  %29 = load i32, ptr %6, align 4, !tbaa !12
  %30 = call i32 @mbedtls_aes_setkey_enc(ptr noundef %9, ptr noundef %28, i32 noundef %29)
  store i32 %30, ptr %8, align 4, !tbaa !12
  %31 = icmp ne i32 %30, 0
  br i1 %31, label %32, label %33

32:                                               ; preds = %3
  br label %177

33:                                               ; preds = %3
  %34 = getelementptr inbounds nuw %struct.mbedtls_aes_context, ptr %9, i32 0, i32 0
  %35 = load i32, ptr %34, align 8, !tbaa !14
  %36 = load ptr, ptr %4, align 8, !tbaa !3
  %37 = getelementptr inbounds nuw %struct.mbedtls_aes_context, ptr %36, i32 0, i32 0
  store i32 %35, ptr %37, align 8, !tbaa !14
  %38 = call i32 @mbedtls_aesni_has_support(i32 noundef 33554432)
  %39 = icmp ne i32 %38, 0
  br i1 %39, label %40, label %50

40:                                               ; preds = %33
  %41 = load ptr, ptr %10, align 8, !tbaa !18
  %42 = getelementptr inbounds nuw %struct.mbedtls_aes_context, ptr %9, i32 0, i32 2
  %43 = getelementptr inbounds [68 x i32], ptr %42, i64 0, i64 0
  %44 = getelementptr inbounds nuw %struct.mbedtls_aes_context, ptr %9, i32 0, i32 1
  %45 = load i64, ptr %44, align 8, !tbaa !17
  %46 = getelementptr inbounds nuw i32, ptr %43, i64 %45
  %47 = load ptr, ptr %4, align 8, !tbaa !3
  %48 = getelementptr inbounds nuw %struct.mbedtls_aes_context, ptr %47, i32 0, i32 0
  %49 = load i32, ptr %48, align 8, !tbaa !14
  call void @mbedtls_aesni_inverse_key(ptr noundef %41, ptr noundef %46, i32 noundef %49)
  br label %177

50:                                               ; preds = %33
  %51 = getelementptr inbounds nuw %struct.mbedtls_aes_context, ptr %9, i32 0, i32 2
  %52 = getelementptr inbounds [68 x i32], ptr %51, i64 0, i64 0
  %53 = getelementptr inbounds nuw %struct.mbedtls_aes_context, ptr %9, i32 0, i32 1
  %54 = load i64, ptr %53, align 8, !tbaa !17
  %55 = getelementptr inbounds nuw i32, ptr %52, i64 %54
  %56 = getelementptr inbounds nuw %struct.mbedtls_aes_context, ptr %9, i32 0, i32 0
  %57 = load i32, ptr %56, align 8, !tbaa !14
  %58 = mul nsw i32 %57, 4
  %59 = sext i32 %58 to i64
  %60 = getelementptr inbounds i32, ptr %55, i64 %59
  store ptr %60, ptr %7, align 8, !tbaa !18
  %61 = load ptr, ptr %7, align 8, !tbaa !18
  %62 = getelementptr inbounds nuw i32, ptr %61, i32 1
  store ptr %62, ptr %7, align 8, !tbaa !18
  %63 = load i32, ptr %61, align 4, !tbaa !12
  %64 = load ptr, ptr %10, align 8, !tbaa !18
  %65 = getelementptr inbounds nuw i32, ptr %64, i32 1
  store ptr %65, ptr %10, align 8, !tbaa !18
  store i32 %63, ptr %64, align 4, !tbaa !12
  %66 = load ptr, ptr %7, align 8, !tbaa !18
  %67 = getelementptr inbounds nuw i32, ptr %66, i32 1
  store ptr %67, ptr %7, align 8, !tbaa !18
  %68 = load i32, ptr %66, align 4, !tbaa !12
  %69 = load ptr, ptr %10, align 8, !tbaa !18
  %70 = getelementptr inbounds nuw i32, ptr %69, i32 1
  store ptr %70, ptr %10, align 8, !tbaa !18
  store i32 %68, ptr %69, align 4, !tbaa !12
  %71 = load ptr, ptr %7, align 8, !tbaa !18
  %72 = getelementptr inbounds nuw i32, ptr %71, i32 1
  store ptr %72, ptr %7, align 8, !tbaa !18
  %73 = load i32, ptr %71, align 4, !tbaa !12
  %74 = load ptr, ptr %10, align 8, !tbaa !18
  %75 = getelementptr inbounds nuw i32, ptr %74, i32 1
  store ptr %75, ptr %10, align 8, !tbaa !18
  store i32 %73, ptr %74, align 4, !tbaa !12
  %76 = load ptr, ptr %7, align 8, !tbaa !18
  %77 = getelementptr inbounds nuw i32, ptr %76, i32 1
  store ptr %77, ptr %7, align 8, !tbaa !18
  %78 = load i32, ptr %76, align 4, !tbaa !12
  %79 = load ptr, ptr %10, align 8, !tbaa !18
  %80 = getelementptr inbounds nuw i32, ptr %79, i32 1
  store ptr %80, ptr %10, align 8, !tbaa !18
  store i32 %78, ptr %79, align 4, !tbaa !12
  %81 = load ptr, ptr %7, align 8, !tbaa !18
  %82 = getelementptr inbounds i32, ptr %81, i64 -8
  store ptr %82, ptr %7, align 8, !tbaa !18
  call void @llvm.lifetime.start.p0(i64 4, ptr %11) #10
  %83 = load ptr, ptr %4, align 8, !tbaa !3
  %84 = getelementptr inbounds nuw %struct.mbedtls_aes_context, ptr %83, i32 0, i32 0
  %85 = load i32, ptr %84, align 8, !tbaa !14
  %86 = sub nsw i32 %85, 1
  store i32 %86, ptr %11, align 4, !tbaa !12
  br label %87

87:                                               ; preds = %151, %50
  %88 = load i32, ptr %11, align 4, !tbaa !12
  %89 = icmp sgt i32 %88, 0
  br i1 %89, label %91, label %90

90:                                               ; preds = %87
  store i32 3, ptr %12, align 4
  call void @llvm.lifetime.end.p0(i64 4, ptr %11) #10
  br label %156

91:                                               ; preds = %87
  call void @llvm.lifetime.start.p0(i64 4, ptr %13) #10
  store i32 0, ptr %13, align 4, !tbaa !12
  br label %92

92:                                               ; preds = %145, %91
  %93 = load i32, ptr %13, align 4, !tbaa !12
  %94 = icmp slt i32 %93, 4
  br i1 %94, label %96, label %95

95:                                               ; preds = %92
  store i32 6, ptr %12, align 4
  call void @llvm.lifetime.end.p0(i64 4, ptr %13) #10
  br label %150

96:                                               ; preds = %92
  %97 = load ptr, ptr %7, align 8, !tbaa !18
  %98 = load i32, ptr %97, align 4, !tbaa !12
  %99 = and i32 %98, 255
  %100 = trunc i32 %99 to i8
  %101 = zext i8 %100 to i64
  %102 = getelementptr inbounds nuw [256 x i8], ptr @FSb, i64 0, i64 %101
  %103 = load i8, ptr %102, align 1, !tbaa !22
  %104 = zext i8 %103 to i64
  %105 = getelementptr inbounds nuw [256 x i32], ptr @RT0, i64 0, i64 %104
  %106 = load i32, ptr %105, align 4, !tbaa !12
  %107 = load ptr, ptr %7, align 8, !tbaa !18
  %108 = load i32, ptr %107, align 4, !tbaa !12
  %109 = lshr i32 %108, 8
  %110 = and i32 %109, 255
  %111 = trunc i32 %110 to i8
  %112 = zext i8 %111 to i64
  %113 = getelementptr inbounds nuw [256 x i8], ptr @FSb, i64 0, i64 %112
  %114 = load i8, ptr %113, align 1, !tbaa !22
  %115 = zext i8 %114 to i64
  %116 = getelementptr inbounds nuw [256 x i32], ptr @RT1, i64 0, i64 %115
  %117 = load i32, ptr %116, align 4, !tbaa !12
  %118 = xor i32 %106, %117
  %119 = load ptr, ptr %7, align 8, !tbaa !18
  %120 = load i32, ptr %119, align 4, !tbaa !12
  %121 = lshr i32 %120, 16
  %122 = and i32 %121, 255
  %123 = trunc i32 %122 to i8
  %124 = zext i8 %123 to i64
  %125 = getelementptr inbounds nuw [256 x i8], ptr @FSb, i64 0, i64 %124
  %126 = load i8, ptr %125, align 1, !tbaa !22
  %127 = zext i8 %126 to i64
  %128 = getelementptr inbounds nuw [256 x i32], ptr @RT2, i64 0, i64 %127
  %129 = load i32, ptr %128, align 4, !tbaa !12
  %130 = xor i32 %118, %129
  %131 = load ptr, ptr %7, align 8, !tbaa !18
  %132 = load i32, ptr %131, align 4, !tbaa !12
  %133 = lshr i32 %132, 24
  %134 = and i32 %133, 255
  %135 = trunc i32 %134 to i8
  %136 = zext i8 %135 to i64
  %137 = getelementptr inbounds nuw [256 x i8], ptr @FSb, i64 0, i64 %136
  %138 = load i8, ptr %137, align 1, !tbaa !22
  %139 = zext i8 %138 to i64
  %140 = getelementptr inbounds nuw [256 x i32], ptr @RT3, i64 0, i64 %139
  %141 = load i32, ptr %140, align 4, !tbaa !12
  %142 = xor i32 %130, %141
  %143 = load ptr, ptr %10, align 8, !tbaa !18
  %144 = getelementptr inbounds nuw i32, ptr %143, i32 1
  store ptr %144, ptr %10, align 8, !tbaa !18
  store i32 %142, ptr %143, align 4, !tbaa !12
  br label %145

145:                                              ; preds = %96
  %146 = load i32, ptr %13, align 4, !tbaa !12
  %147 = add nsw i32 %146, 1
  store i32 %147, ptr %13, align 4, !tbaa !12
  %148 = load ptr, ptr %7, align 8, !tbaa !18
  %149 = getelementptr inbounds nuw i32, ptr %148, i32 1
  store ptr %149, ptr %7, align 8, !tbaa !18
  br label %92, !llvm.loop !31

150:                                              ; preds = %95
  br label %151

151:                                              ; preds = %150
  %152 = load i32, ptr %11, align 4, !tbaa !12
  %153 = add nsw i32 %152, -1
  store i32 %153, ptr %11, align 4, !tbaa !12
  %154 = load ptr, ptr %7, align 8, !tbaa !18
  %155 = getelementptr inbounds i32, ptr %154, i64 -8
  store ptr %155, ptr %7, align 8, !tbaa !18
  br label %87, !llvm.loop !32

156:                                              ; preds = %90
  %157 = load ptr, ptr %7, align 8, !tbaa !18
  %158 = getelementptr inbounds nuw i32, ptr %157, i32 1
  store ptr %158, ptr %7, align 8, !tbaa !18
  %159 = load i32, ptr %157, align 4, !tbaa !12
  %160 = load ptr, ptr %10, align 8, !tbaa !18
  %161 = getelementptr inbounds nuw i32, ptr %160, i32 1
  store ptr %161, ptr %10, align 8, !tbaa !18
  store i32 %159, ptr %160, align 4, !tbaa !12
  %162 = load ptr, ptr %7, align 8, !tbaa !18
  %163 = getelementptr inbounds nuw i32, ptr %162, i32 1
  store ptr %163, ptr %7, align 8, !tbaa !18
  %164 = load i32, ptr %162, align 4, !tbaa !12
  %165 = load ptr, ptr %10, align 8, !tbaa !18
  %166 = getelementptr inbounds nuw i32, ptr %165, i32 1
  store ptr %166, ptr %10, align 8, !tbaa !18
  store i32 %164, ptr %165, align 4, !tbaa !12
  %167 = load ptr, ptr %7, align 8, !tbaa !18
  %168 = getelementptr inbounds nuw i32, ptr %167, i32 1
  store ptr %168, ptr %7, align 8, !tbaa !18
  %169 = load i32, ptr %167, align 4, !tbaa !12
  %170 = load ptr, ptr %10, align 8, !tbaa !18
  %171 = getelementptr inbounds nuw i32, ptr %170, i32 1
  store ptr %171, ptr %10, align 8, !tbaa !18
  store i32 %169, ptr %170, align 4, !tbaa !12
  %172 = load ptr, ptr %7, align 8, !tbaa !18
  %173 = getelementptr inbounds nuw i32, ptr %172, i32 1
  store ptr %173, ptr %7, align 8, !tbaa !18
  %174 = load i32, ptr %172, align 4, !tbaa !12
  %175 = load ptr, ptr %10, align 8, !tbaa !18
  %176 = getelementptr inbounds nuw i32, ptr %175, i32 1
  store ptr %176, ptr %10, align 8, !tbaa !18
  store i32 %174, ptr %175, align 4, !tbaa !12
  br label %177

177:                                              ; preds = %156, %40, %32
  call void @mbedtls_aes_free(ptr noundef %9)
  %178 = load i32, ptr %8, align 4, !tbaa !12
  store i32 1, ptr %12, align 4
  call void @llvm.lifetime.end.p0(i64 8, ptr %10) #10
  call void @llvm.lifetime.end.p0(i64 288, ptr %9) #10
  call void @llvm.lifetime.end.p0(i64 4, ptr %8) #10
  call void @llvm.lifetime.end.p0(i64 8, ptr %7) #10
  ret i32 %178
}