; Function Attrs: nounwind uwtable
define hidden i32 @mbedtls_aes_setkey_dec(ptr noundef initializes((8, 16)) %0, ptr noundef %1, i32 noundef %2) local_unnamed_addr #2 {
  %4 = alloca %struct.mbedtls_aes_context, align 8
  call void @llvm.lifetime.start.p0(i64 288, ptr nonnull %4) #11
  call void @llvm.memset.p0.i64(ptr noundef nonnull align 8 dereferenceable(288) %4, i8 0, i64 288, i1 false)
  %5 = getelementptr inbounds nuw i8, ptr %0, i64 16
  %6 = getelementptr inbounds nuw i8, ptr %0, i64 8
  store i64 0, ptr %6, align 8, !tbaa !16
  %7 = call i32 @mbedtls_aes_setkey_enc(ptr noundef nonnull %4, ptr noundef %1, i32 noundef %2)
  %.not = icmp eq i32 %7, 0
  br i1 %.not, label %8, label %87

8:                                                ; preds = %3
  %9 = load i32, ptr %4, align 8, !tbaa !3
  store i32 %9, ptr %0, align 8, !tbaa !3
  %10 = call i32 @mbedtls_aesni_has_support(i32 noundef 33554432) #11
  %.not42 = icmp eq i32 %10, 0
  %11 = getelementptr inbounds nuw i8, ptr %4, i64 16
  %12 = getelementptr inbounds nuw i8, ptr %4, i64 8
  %13 = load i64, ptr %12, align 8, !tbaa !16
  %14 = getelementptr inbounds nuw i32, ptr %11, i64 %13
  br i1 %.not42, label %17, label %15

15:                                               ; preds = %8
  %16 = load i32, ptr %0, align 8, !tbaa !3
  call void @mbedtls_aesni_inverse_key(ptr noundef nonnull %5, ptr noundef nonnull %14, i32 noundef %16) #11
  br label %87

17:                                               ; preds = %8
  %18 = load i32, ptr %4, align 8, !tbaa !3
  %19 = shl nsw i32 %18, 2
  %20 = sext i32 %19 to i64
  %21 = getelementptr inbounds i32, ptr %14, i64 %20
  %22 = getelementptr inbounds nuw i8, ptr %21, i64 4
  %23 = load i32, ptr %21, align 4, !tbaa !12
  %24 = getelementptr inbounds nuw i8, ptr %0, i64 20
  store i32 %23, ptr %5, align 4, !tbaa !12
  %25 = getelementptr inbounds nuw i8, ptr %21, i64 8
  %26 = load i32, ptr %22, align 4, !tbaa !12
  %27 = getelementptr inbounds nuw i8, ptr %0, i64 24
  store i32 %26, ptr %24, align 4, !tbaa !12
  %28 = getelementptr inbounds nuw i8, ptr %21, i64 12
  %29 = load i32, ptr %25, align 4, !tbaa !12
  %30 = getelementptr inbounds nuw i8, ptr %0, i64 28
  store i32 %29, ptr %27, align 4, !tbaa !12
  %31 = load i32, ptr %28, align 4, !tbaa !12
  %32 = getelementptr inbounds nuw i8, ptr %0, i64 32
  store i32 %31, ptr %30, align 4, !tbaa !12
  %33 = getelementptr inbounds i8, ptr %21, i64 -16
  %34 = load i32, ptr %0, align 8, !tbaa !3
  %35 = icmp sgt i32 %34, 1
  br i1 %35, label %.preheader, label %._crit_edge

.preheader:                                       ; preds = %17, %46
  %.03849.in = phi i32 [ %.03849, %46 ], [ %34, %17 ]
  %.03948 = phi ptr [ %84, %46 ], [ %32, %17 ]
  %.04047 = phi ptr [ %47, %46 ], [ %33, %17 ]
  br label %49

._crit_edge:                                      ; preds = %46, %17
  %.040.lcssa = phi ptr [ %33, %17 ], [ %47, %46 ]
  %.039.lcssa = phi ptr [ %32, %17 ], [ %84, %46 ]
  %36 = getelementptr inbounds nuw i8, ptr %.040.lcssa, i64 4
  %37 = load i32, ptr %.040.lcssa, align 4, !tbaa !12
  %38 = getelementptr inbounds nuw i8, ptr %.039.lcssa, i64 4
  store i32 %37, ptr %.039.lcssa, align 4, !tbaa !12
  %39 = getelementptr inbounds nuw i8, ptr %.040.lcssa, i64 8
  %40 = load i32, ptr %36, align 4, !tbaa !12
  %41 = getelementptr inbounds nuw i8, ptr %.039.lcssa, i64 8
  store i32 %40, ptr %38, align 4, !tbaa !12
  %42 = getelementptr inbounds nuw i8, ptr %.040.lcssa, i64 12
  %43 = load i32, ptr %39, align 4, !tbaa !12
  %44 = getelementptr inbounds nuw i8, ptr %.039.lcssa, i64 12
  store i32 %43, ptr %41, align 4, !tbaa !12
  %45 = load i32, ptr %42, align 4, !tbaa !12
  store i32 %45, ptr %44, align 4, !tbaa !12
  br label %87

46:                                               ; preds = %49
  %.03849 = add nsw i32 %.03849.in, -1
  %47 = getelementptr inbounds i8, ptr %.14143, i64 -28
  %48 = icmp sgt i32 %.03849.in, 2
  br i1 %48, label %.preheader, label %._crit_edge, !llvm.loop !21

49:                                               ; preds = %.preheader, %49
  %.045 = phi i32 [ 0, %.preheader ], [ %85, %49 ]
  %.144 = phi ptr [ %.03948, %.preheader ], [ %84, %49 ]
  %.14143 = phi ptr [ %.04047, %.preheader ], [ %86, %49 ]
  %50 = load i32, ptr %.14143, align 4, !tbaa !12
  %51 = and i32 %50, 255
  %52 = zext nneg i32 %51 to i64
  %53 = getelementptr inbounds nuw [256 x i8], ptr @FSb, i64 0, i64 %52
  %54 = load i8, ptr %53, align 1, !tbaa !9
  %55 = zext i8 %54 to i64
  %56 = getelementptr inbounds nuw [256 x i32], ptr @RT0, i64 0, i64 %55
  %57 = load i32, ptr %56, align 4, !tbaa !12
  %58 = lshr i32 %50, 8
  %59 = and i32 %58, 255
  %60 = zext nneg i32 %59 to i64
  %61 = getelementptr inbounds nuw [256 x i8], ptr @FSb, i64 0, i64 %60
  %62 = load i8, ptr %61, align 1, !tbaa !9
  %63 = zext i8 %62 to i64
  %64 = getelementptr inbounds nuw [256 x i32], ptr @RT1, i64 0, i64 %63
  %65 = load i32, ptr %64, align 4, !tbaa !12
  %66 = xor i32 %65, %57
  %67 = lshr i32 %50, 16
  %68 = and i32 %67, 255
  %69 = zext nneg i32 %68 to i64
  %70 = getelementptr inbounds nuw [256 x i8], ptr @FSb, i64 0, i64 %69
  %71 = load i8, ptr %70, align 1, !tbaa !9
  %72 = zext i8 %71 to i64
  %73 = getelementptr inbounds nuw [256 x i32], ptr @RT2, i64 0, i64 %72
  %74 = load i32, ptr %73, align 4, !tbaa !12
  %75 = xor i32 %66, %74
  %76 = lshr i32 %50, 24
  %77 = zext nneg i32 %76 to i64
  %78 = getelementptr inbounds nuw [256 x i8], ptr @FSb, i64 0, i64 %77
  %79 = load i8, ptr %78, align 1, !tbaa !9
  %80 = zext i8 %79 to i64
  %81 = getelementptr inbounds nuw [256 x i32], ptr @RT3, i64 0, i64 %80
  %82 = load i32, ptr %81, align 4, !tbaa !12
  %83 = xor i32 %75, %82
  %84 = getelementptr inbounds nuw i8, ptr %.144, i64 4
  store i32 %83, ptr %.144, align 4, !tbaa !12
  %85 = add nuw nsw i32 %.045, 1
  %86 = getelementptr inbounds nuw i8, ptr %.14143, i64 4
  %exitcond.not = icmp eq i32 %85, 4
  br i1 %exitcond.not, label %46, label %49, !llvm.loop !22

87:                                               ; preds = %3, %._crit_edge, %15
  call void @mbedtls_platform_zeroize(ptr noundef nonnull %4, i64 noundef 288) #11
  call void @llvm.lifetime.end.p0(i64 288, ptr nonnull %4) #11
  ret i32 %7
}